target datalayout = "e-m:e-p270:32:32-p271:32:32-p272:64:64-i64:64-i128:128-f80:128-n8:16:32:64-S128"
target triple = "x86_64-pc-linux-gnu"

%struct.lua_State = type { %struct.GCRef, i8, i8, i8, i8, %struct.MRef, %struct.GCRef, ptr, ptr, %struct.MRef, %struct.MRef, %struct.GCRef, %struct.GCRef, ptr, i32 }
%struct.MRef = type { i64 }
%struct.GCRef = type { i64 }
%union.TValue = type { i64 }
%struct.GCtab = type { %struct.GCRef, i8, i8, i8, i8, %struct.MRef, %struct.GCRef, %struct.GCRef, %struct.MRef, i32, i32, %struct.MRef }

@.str.3 = private unnamed_addr constant [23 x i8] c"copy of dead GC object\00", align 1

; Function Attrs: alwaysinline nounwind uwtable
define internal void @checklivetv(ptr noundef %0, ptr noundef %1, ptr noundef %2) #1 {
  %4 = alloca ptr, align 8
  %5 = alloca ptr, align 8
  %6 = alloca ptr, align 8
  store ptr %0, ptr %4, align 8, !tbaa !4
  store ptr %1, ptr %5, align 8, !tbaa !17
  store ptr %2, ptr %6, align 8, !tbaa !25
  ret void
}

; Function Attrs: alwaysinline nounwind uwtable
define internal void @copyTV(ptr noundef %0, ptr noundef %1, ptr noundef %2) #1 {
  %4 = alloca ptr, align 8
  %5 = alloca ptr, align 8
  %6 = alloca ptr, align 8
  store ptr %0, ptr %4, align 8, !tbaa !4
  store ptr %1, ptr %5, align 8, !tbaa !17
  store ptr %2, ptr %6, align 8, !tbaa !17
  %7 = load ptr, ptr %5, align 8, !tbaa !17
  %8 = load ptr, ptr %6, align 8, !tbaa !17
  call void @llvm.memcpy.p0.p0.i64(ptr align 8 %7, ptr align 8 %8, i64 8, i1 false), !tbaa.struct !18
  %9 = load ptr, ptr %4, align 8, !tbaa !4
  %10 = load ptr, ptr %5, align 8, !tbaa !17
  call void @checklivetv(ptr noundef %9, ptr noundef %10, ptr noundef @.str.3)
  ret void
}

; Function Attrs: nounwind uwtable
define internal i32 @lj_cf_unpack(ptr noundef %0) #3 {
  %2 = alloca i32, align 4
  %3 = alloca ptr, align 8
  %4 = alloca ptr, align 8
  %5 = alloca i32, align 4
  %6 = alloca i32, align 4
  %7 = alloca i32, align 4
  %8 = alloca i32, align 4
  %9 = alloca i32, align 4
  %10 = alloca ptr, align 8
  store ptr %0, ptr %3, align 8, !tbaa !4
  call void @llvm.lifetime.start.p0(i64 8, ptr %4) #11
  %11 = load ptr, ptr %3, align 8, !tbaa !4
  %12 = call ptr @lj_lib_checktab(ptr noundef %11, i32 noundef 1)
  store ptr %12, ptr %4, align 8, !tbaa !20
  call void @llvm.lifetime.start.p0(i64 4, ptr %5) #11
  call void @llvm.lifetime.start.p0(i64 4, ptr %6) #11
  %13 = load ptr, ptr %3, align 8, !tbaa !4
  %14 = call i32 @lj_lib_optint(ptr noundef %13, i32 noundef 2, i32 noundef 1)
  store i32 %14, ptr %6, align 4, !tbaa !29
  call void @llvm.lifetime.start.p0(i64 4, ptr %7) #11
  %15 = load ptr, ptr %3, align 8, !tbaa !4
  %16 = getelementptr inbounds nuw %struct.lua_State, ptr %15, i32 0, i32 7
  %17 = load ptr, ptr %16, align 8, !tbaa !32
  %18 = getelementptr inbounds %union.TValue, ptr %17, i64 3
  %19 = getelementptr inbounds %union.TValue, ptr %18, i64 -1
  %20 = load ptr, ptr %3, align 8, !tbaa !4
  %21 = getelementptr inbounds nuw %struct.lua_State, ptr %20, i32 0, i32 8
  %22 = load ptr, ptr %21, align 8, !tbaa !9
  %23 = icmp ult ptr %19, %22
  br i1 %23, label %24, label %35

24:                                               ; preds = %1
  %25 = load ptr, ptr %3, align 8, !tbaa !4
  %26 = getelementptr inbounds nuw %struct.lua_State, ptr %25, i32 0, i32 7
  %27 = load ptr, ptr %26, align 8, !tbaa !32
  %28 = getelementptr inbounds %union.TValue, ptr %27, i64 3
  %29 = getelementptr inbounds %union.TValue, ptr %28, i64 -1
  %30 = load i64, ptr %29, align 8, !tbaa !16
  %31 = icmp eq i64 %30, -1
  br i1 %31, label %35, label %32

32:                                               ; preds = %24
  %33 = load ptr, ptr %3, align 8, !tbaa !4
  %34 = call i32 @lj_lib_checkint(ptr noundef %33, i32 noundef 3)
  br label %38

35:                                               ; preds = %24, %1
  %36 = load ptr, ptr %4, align 8, !tbaa !20
  %37 = call i32 @lj_tab_len(ptr noundef %36)
  br label %38

38:                                               ; preds = %35, %32
  %39 = phi i32 [ %34, %32 ], [ %37, %35 ]
  store i32 %39, ptr %7, align 4, !tbaa !29
  call void @llvm.lifetime.start.p0(i64 4, ptr %8) #11
  %40 = load i32, ptr %6, align 4, !tbaa !29
  %41 = load i32, ptr %7, align 4, !tbaa !29
  %42 = icmp sgt i32 %40, %41
  br i1 %42, label %43, label %44

43:                                               ; preds = %38
  store i32 0, ptr %2, align 4
  store i32 1, ptr %9, align 4
  br label %103

44:                                               ; preds = %38
  %45 = load i32, ptr %7, align 4, !tbaa !29
  %46 = load i32, ptr %6, align 4, !tbaa !29
  %47 = sub i32 %45, %46
  store i32 %47, ptr %8, align 4, !tbaa !29
  %48 = load i32, ptr %8, align 4, !tbaa !29
  %49 = add i32 %48, 1
  store i32 %49, ptr %5, align 4, !tbaa !29
  %50 = load i32, ptr %8, align 4, !tbaa !29
  %51 = icmp uge i32 %50, 8000
  br i1 %51, label %57, label %52

52:                                               ; preds = %44
  %53 = load ptr, ptr %3, align 8, !tbaa !4
  %54 = load i32, ptr %5, align 4, !tbaa !29
  %55 = call i32 @lua_checkstack(ptr noundef %53, i32 noundef %54)
  %56 = icmp ne i32 %55, 0
  br i1 %56, label %59, label %57

57:                                               ; preds = %52, %44
  %58 = load ptr, ptr %3, align 8, !tbaa !4
  call void @lj_err_caller(ptr noundef %58, i32 noundef 987) #10
  unreachable

59:                                               ; preds = %52
  br label %60

60:                                               ; preds = %96, %59
  call void @llvm.lifetime.start.p0(i64 8, ptr %10) #11
  %61 = load i32, ptr %6, align 4, !tbaa !29
  %62 = load ptr, ptr %4, align 8, !tbaa !20
  %63 = getelementptr inbounds nuw %struct.GCtab, ptr %62, i32 0, i32 9
  %64 = load i32, ptr %63, align 8, !tbaa !36
  %65 = icmp ult i32 %61, %64
  br i1 %65, label %66, label %75

66:                                               ; preds = %60
  %67 = load ptr, ptr %4, align 8, !tbaa !20
  %68 = getelementptr inbounds nuw %struct.GCtab, ptr %67, i32 0, i32 5
  %69 = getelementptr inbounds nuw %struct.MRef, ptr %68, i32 0, i32 0
  %70 = load i64, ptr %69, align 8, !tbaa !37
  %71 = inttoptr i64 %70 to ptr
  %72 = load i32, ptr %6, align 4, !tbaa !29
  %73 = sext i32 %72 to i64
  %74 = getelementptr inbounds %union.TValue, ptr %71, i64 %73
  br label %79

75:                                               ; preds = %60
  %76 = load ptr, ptr %4, align 8, !tbaa !20
  %77 = load i32, ptr %6, align 4, !tbaa !29
  %78 = call ptr @lj_tab_getinth(ptr noundef %76, i32 noundef %77)
  br label %79

79:                                               ; preds = %75, %66
  %80 = phi ptr [ %74, %66 ], [ %78, %75 ]
  store ptr %80, ptr %10, align 8, !tbaa !17
  %81 = load ptr, ptr %10, align 8, !tbaa !17
  %82 = icmp ne ptr %81, null
  br i1 %82, label %83, label %90

83:                                               ; preds = %79
  %84 = load ptr, ptr %3, align 8, !tbaa !4
  %85 = load ptr, ptr %3, align 8, !tbaa !4
  %86 = getelementptr inbounds nuw %struct.lua_State, ptr %85, i32 0, i32 8
  %87 = load ptr, ptr %86, align 8, !tbaa !9
  %88 = getelementptr inbounds nuw %union.TValue, ptr %87, i32 1
  store ptr %88, ptr %86, align 8, !tbaa !9
  %89 = load ptr, ptr %10, align 8, !tbaa !17
  call void @copyTV(ptr noundef %84, ptr noundef %87, ptr noundef %89)
  br label %95

90:                                               ; preds = %79
  %91 = load ptr, ptr %3, align 8, !tbaa !4
  %92 = getelementptr inbounds nuw %struct.lua_State, ptr %91, i32 0, i32 8
  %93 = load ptr, ptr %92, align 8, !tbaa !9
  %94 = getelementptr inbounds nuw %union.TValue, ptr %93, i32 1
  store ptr %94, ptr %92, align 8, !tbaa !9
  store i64 -1, ptr %93, align 8, !tbaa !16
  br label %95

95:                                               ; preds = %90, %83
  call void @llvm.lifetime.end.p0(i64 8, ptr %10) #11
  br label %96

96:                                               ; preds = %95
  %97 = load i32, ptr %6, align 4, !tbaa !29
  %98 = add nsw i32 %97, 1
  store i32 %98, ptr %6, align 4, !tbaa !29
  %99 = load i32, ptr %7, align 4, !tbaa !29
  %100 = icmp slt i32 %97, %99
  br i1 %100, label %60, label %101, !llvm.loop !38

101:                                              ; preds = %96
  %102 = load i32, ptr %5, align 4, !tbaa !29
  store i32 %102, ptr %2, align 4
  store i32 1, ptr %9, align 4
  br label %103

103:                                              ; preds = %101, %43
  call void @llvm.lifetime.end.p0(i64 4, ptr %8) #11
  call void @llvm.lifetime.end.p0(i64 4, ptr %7) #11
  call void @llvm.lifetime.end.p0(i64 4, ptr %6) #11
  call void @llvm.lifetime.end.p0(i64 4, ptr %5) #11
  call void @llvm.lifetime.end.p0(i64 8, ptr %4) #11
  %104 = load i32, ptr %2, align 4
  ret i32 %104
}