; Function Attrs: nounwind uwtable
define internal i32 @lj_cf_unpack(ptr noundef %0) #2 {
  %2 = tail call ptr @lj_lib_checktab(ptr noundef %0, i32 noundef 1) #11
  %3 = tail call i32 @lj_lib_optint(ptr noundef %0, i32 noundef 2, i32 noundef 1) #11
  %4 = getelementptr inbounds nuw i8, ptr %0, i64 32
  %5 = load ptr, ptr %4, align 8, !tbaa !19
  %6 = getelementptr inbounds nuw i8, ptr %5, i64 16
  %7 = getelementptr inbounds nuw i8, ptr %0, i64 40
  %8 = load ptr, ptr %7, align 8, !tbaa !4
  %9 = icmp ult ptr %6, %8
  br i1 %9, label %10, label %15

10:                                               ; preds = %1
  %11 = load i64, ptr %6, align 8, !tbaa !14
  %12 = icmp eq i64 %11, -1
  br i1 %12, label %15, label %13

13:                                               ; preds = %10
  %14 = tail call i32 @lj_lib_checkint(ptr noundef nonnull %0, i32 noundef 3) #11
  br label %17

15:                                               ; preds = %10, %1
  %16 = tail call i32 @lj_tab_len(ptr noundef %2) #11
  br label %17

17:                                               ; preds = %15, %13
  %18 = phi i32 [ %14, %13 ], [ %16, %15 ]
  %19 = icmp sgt i32 %3, %18
  br i1 %19, label %.loopexit, label %20

20:                                               ; preds = %17
  %21 = sub i32 %18, %3
  %22 = add i32 %21, 1
  %23 = icmp ugt i32 %21, 7999
  br i1 %23, label %30, label %24

24:                                               ; preds = %20
  %25 = tail call i32 @lua_checkstack(ptr noundef nonnull %0, i32 noundef %22) #11
  %.not = icmp eq i32 %25, 0
  br i1 %.not, label %30, label %.preheader

.preheader:                                       ; preds = %24
  %26 = getelementptr inbounds nuw i8, ptr %2, i64 48
  %27 = getelementptr inbounds nuw i8, ptr %2, i64 16
  %28 = sext i32 %3 to i64
  %29 = add i32 %18, 1
  br label %31

30:                                               ; preds = %24, %20
  tail call void @lj_err_caller(ptr noundef nonnull %0, i32 noundef 987) #10
  unreachable

31:                                               ; preds = %.preheader, %47
  %indvars.iv = phi i64 [ %28, %.preheader ], [ %indvars.iv.next, %47 ]
  %32 = load i32, ptr %26, align 8, !tbaa !34
  %33 = trunc nsw i64 %indvars.iv to i32
  %34 = icmp ugt i32 %32, %33
  br i1 %34, label %35, label %39

35:                                               ; preds = %31
  %36 = load i64, ptr %27, align 8, !tbaa !35
  %37 = inttoptr i64 %36 to ptr
  %38 = getelementptr inbounds %union.TValue, ptr %37, i64 %indvars.iv
  br label %41

39:                                               ; preds = %31
  %40 = tail call ptr @lj_tab_getinth(ptr noundef nonnull %2, i32 noundef %33) #11
  br label %41

41:                                               ; preds = %39, %35
  %42 = phi ptr [ %38, %35 ], [ %40, %39 ]
  %.not35 = icmp eq ptr %42, null
  %43 = load ptr, ptr %7, align 8, !tbaa !4
  %44 = getelementptr inbounds nuw i8, ptr %43, i64 8
  store ptr %44, ptr %7, align 8, !tbaa !4
  br i1 %.not35, label %47, label %45

45:                                               ; preds = %41
  %46 = load i64, ptr %42, align 8, !tbaa !14
  br label %47

47:                                               ; preds = %41, %45
  %.sink = phi i64 [ %46, %45 ], [ -1, %41 ]
  store i64 %.sink, ptr %43, align 8, !tbaa !14
  %indvars.iv.next = add nsw i64 %indvars.iv, 1
  %lftr.wideiv = trunc i64 %indvars.iv.next to i32
  %exitcond.not = icmp eq i32 %29, %lftr.wideiv
  br i1 %exitcond.not, label %.loopexit, label %31, !llvm.loop !36

.loopexit:                                        ; preds = %47, %17
  %.0 = phi i32 [ 0, %17 ], [ %22, %47 ]
  ret i32 %.0
}